; Function Attrs: mustprogress uwtable
define internal noundef zeroext i1 @_ZNSt17_Function_handlerIFbPN3dap15FieldSerializerEEZZZN12_GLOBAL__N_14Impl14processRequestEPNS0_4json19JsonCppDeserializerENS0_7integerEENKUlvE_clEvENKUlPKNS0_8TypeInfoERKNS0_5ErrorEE_clESD_SG_EUlS2_E_E10_M_managerERSt9_Any_dataRKSK_St18_Manager_operation(ptr nocapture noundef nonnull align 8 dereferenceable(16) %0, ptr nocapture noundef nonnull readonly align 8 dereferenceable(16) %1, i32 noundef %2) #0 align 2 {
  switch i32 %2, label %_ZNSt14_Function_base13_Base_managerIZZZN12_GLOBAL__N_14Impl14processRequestEPN3dap4json19JsonCppDeserializerENS3_7integerEENKUlvE_clEvENKUlPKNS3_8TypeInfoERKNS3_5ErrorEE_clESB_SE_EUlPNS3_15FieldSerializerEE_E10_M_managerERSt9_Any_dataRKSK_St18_Manager_operation.exit [
    i32 0, label %4
    i32 1, label %5
    i32 3, label %8
    i32 2, label %6
  ]

4:                                                ; preds = %3
  store ptr @_ZTIZZZN12_GLOBAL__N_14Impl14processRequestEPN3dap4json19JsonCppDeserializerENS1_7integerEENKUlvE_clEvENKUlPKNS1_8TypeInfoERKNS1_5ErrorEE_clES9_SC_EUlPNS1_15FieldSerializerEE_, ptr %0, align 8
  br label %_ZNSt14_Function_base13_Base_managerIZZZN12_GLOBAL__N_14Impl14processRequestEPN3dap4json19JsonCppDeserializerENS3_7integerEENKUlvE_clEvENKUlPKNS3_8TypeInfoERKNS3_5ErrorEE_clESB_SE_EUlPNS3_15FieldSerializerEE_E10_M_managerERSt9_Any_dataRKSK_St18_Manager_operation.exit

5:                                                ; preds = %3
  %.val = load ptr, ptr %1, align 8
  store ptr %.val, ptr %0, align 8
  br label %_ZNSt14_Function_base13_Base_managerIZZZN12_GLOBAL__N_14Impl14processRequestEPN3dap4json19JsonCppDeserializerENS3_7integerEENKUlvE_clEvENKUlPKNS3_8TypeInfoERKNS3_5ErrorEE_clESB_SE_EUlPNS3_15FieldSerializerEE_E10_M_managerERSt9_Any_dataRKSK_St18_Manager_operation.exit

6:                                                ; preds = %3
  %.val6 = load ptr, ptr %1, align 8
  %7 = tail call noalias noundef nonnull dereferenceable(32) ptr @_Znwm(i64 noundef 32) #24
  tail call void @llvm.memcpy.p0.p0.i64(ptr noundef nonnull align 16 dereferenceable(32) %7, ptr noundef nonnull align 8 dereferenceable(32) %.val6, i64 32, i1 false)
  store ptr %7, ptr %0, align 8
  br label %_ZNSt14_Function_base13_Base_managerIZZZN12_GLOBAL__N_14Impl14processRequestEPN3dap4json19JsonCppDeserializerENS3_7integerEENKUlvE_clEvENKUlPKNS3_8TypeInfoERKNS3_5ErrorEE_clESB_SE_EUlPNS3_15FieldSerializerEE_E10_M_managerERSt9_Any_dataRKSK_St18_Manager_operation.exit

8:                                                ; preds = %3
  %.val7.i = load ptr, ptr %0, align 8
  %9 = icmp eq ptr %.val7.i, null
  br i1 %9, label %_ZNSt14_Function_base13_Base_managerIZZZN12_GLOBAL__N_14Impl14processRequestEPN3dap4json19JsonCppDeserializerENS3_7integerEENKUlvE_clEvENKUlPKNS3_8TypeInfoERKNS3_5ErrorEE_clESB_SE_EUlPNS3_15FieldSerializerEE_E10_M_managerERSt9_Any_dataRKSK_St18_Manager_operation.exit, label %10

10:                                               ; preds = %8
  tail call void @_ZdlPv(ptr noundef nonnull %.val7.i) #25
  br label %_ZNSt14_Function_base13_Base_managerIZZZN12_GLOBAL__N_14Impl14processRequestEPN3dap4json19JsonCppDeserializerENS3_7integerEENKUlvE_clEvENKUlPKNS3_8TypeInfoERKNS3_5ErrorEE_clESB_SE_EUlPNS3_15FieldSerializerEE_E10_M_managerERSt9_Any_dataRKSK_St18_Manager_operation.exit

_ZNSt14_Function_base13_Base_managerIZZZN12_GLOBAL__N_14Impl14processRequestEPN3dap4json19JsonCppDeserializerENS3_7integerEENKUlvE_clEvENKUlPKNS3_8TypeInfoERKNS3_5ErrorEE_clESB_SE_EUlPNS3_15FieldSerializerEE_E10_M_managerERSt9_Any_dataRKSK_St18_Manager_operation.exit: ; preds = %3, %10, %8, %6, %5, %4
  ret i1 false
}